
smc4.x86.out:     file format elf32-i386


Disassembly of section .text:

08048060 <_start>:
 8048060:	a1 e6 80 04 08       	mov    0x80480e6,%eax
 8048065:	a3 0b 81 04 08       	mov    %eax,0x804810b
 804806a:	a1 e7 80 04 08       	mov    0x80480e7,%eax
 804806f:	a3 0c 81 04 08       	mov    %eax,0x804810c
 8048074:	a1 eb 80 04 08       	mov    0x80480eb,%eax
 8048079:	a3 10 81 04 08       	mov    %eax,0x8048110
 804807e:	a1 ec 80 04 08       	mov    0x80480ec,%eax
 8048083:	a3 11 81 04 08       	mov    %eax,0x8048111
 8048088:	a1 f0 80 04 08       	mov    0x80480f0,%eax
 804808d:	a3 15 81 04 08       	mov    %eax,0x8048115
 8048092:	a1 f1 80 04 08       	mov    0x80480f1,%eax
 8048097:	a3 16 81 04 08       	mov    %eax,0x8048116
 804809c:	a1 f5 80 04 08       	mov    0x80480f5,%eax
 80480a1:	a3 1a 81 04 08       	mov    %eax,0x804811a
 80480a6:	a1 f6 80 04 08       	mov    0x80480f6,%eax
 80480ab:	a3 1b 81 04 08       	mov    %eax,0x804811b
 80480b0:	a1 fa 80 04 08       	mov    0x80480fa,%eax
 80480b5:	a3 1f 81 04 08       	mov    %eax,0x804811f
 80480ba:	a1 fb 80 04 08       	mov    0x80480fb,%eax
 80480bf:	a3 20 81 04 08       	mov    %eax,0x8048120
 80480c4:	a1 ff 80 04 08       	mov    0x80480ff,%eax
 80480c9:	a3 24 81 04 08       	mov    %eax,0x8048124
 80480ce:	a1 00 81 04 08       	mov    0x8048100,%eax
 80480d3:	a3 25 81 04 08       	mov    %eax,0x8048125
 80480d8:	66 a1 04 81 04 08    	mov    0x8048104,%ax
 80480de:	66 a3 29 81 04 08    	mov    %ax,0x8048129
 80480e4:	eb 25                	jmp    804810b <gen>

080480e6 <copy1>:
 80480e6:	a1 04 81 04 08       	mov    0x8048104,%eax
 80480eb:	a3 29 81 04 08       	mov    %eax,0x8048129
 80480f0:	a1 05 81 04 08       	mov    0x8048105,%eax
 80480f5:	a3 2a 81 04 08       	mov    %eax,0x804812a
 80480fa:	a1 09 81 04 08       	mov    0x8048109,%eax
 80480ff:	a3 2e 81 04 08       	mov    %eax,0x804812e

08048104 <copy2>:
 8048104:	b8 01 00 00 00       	mov    $0x1,%eax
 8048109:	cd 80                	int    $0x80

0804810b <gen>:
 804810b:	b8 00 00 00 00       	mov    $0x0,%eax
 8048110:	b8 00 00 00 00       	mov    $0x0,%eax
 8048115:	b8 00 00 00 00       	mov    $0x0,%eax
 804811a:	b8 00 00 00 00       	mov    $0x0,%eax
 804811f:	b8 00 00 00 00       	mov    $0x0,%eax
 8048124:	b8 00 00 00 00       	mov    $0x0,%eax

08048129 <ggen>:
 8048129:	90                   	nop
